; Function Attrs: mustprogress uwtable
define void @_ZN9grpc_core16ResolverRegistry7Builder5ResetEv(ptr noundef nonnull align 8 dereferenceable(80) %0) local_unnamed_addr #3 align 2 personality ptr @__gxx_personality_v0 {
  %2 = getelementptr inbounds nuw i8, ptr %0, i64 16
  %3 = load ptr, ptr %2, align 8, !tbaa !12
  invoke void @_ZNSt8_Rb_treeISt17basic_string_viewIcSt11char_traitsIcEESt4pairIKS3_St10unique_ptrIN9grpc_core15ResolverFactoryESt14default_deleteIS8_EEESt10_Select1stISC_ESt4lessIS3_ESaISC_EE8_M_eraseEPSt13_Rb_tree_nodeISC_E(ptr noundef nonnull align 8 dereferenceable(48) %0, ptr noundef %3)
          to label %_ZNSt3mapISt17basic_string_viewIcSt11char_traitsIcEESt10unique_ptrIN9grpc_core15ResolverFactoryESt14default_deleteIS6_EESt4lessIS3_ESaISt4pairIKS3_S9_EEE5clearEv.exit unwind label %4

4:                                                ; preds = %1
  %5 = landingpad { ptr, i32 }
          catch ptr null
  %6 = extractvalue { ptr, i32 } %5, 0
  tail call void @__clang_call_terminate(ptr %6) #27
  unreachable

_ZNSt3mapISt17basic_string_viewIcSt11char_traitsIcEESt10unique_ptrIN9grpc_core15ResolverFactoryESt14default_deleteIS6_EESt4lessIS3_ESaISt4pairIKS3_S9_EEE5clearEv.exit: ; preds = %1
  %7 = getelementptr inbounds nuw i8, ptr %0, i64 8
  store ptr null, ptr %2, align 8, !tbaa !12
  %8 = getelementptr inbounds nuw i8, ptr %0, i64 24
  store ptr %7, ptr %8, align 8, !tbaa !13
  %9 = getelementptr inbounds nuw i8, ptr %0, i64 32
  store ptr %7, ptr %9, align 8, !tbaa !14
  %10 = getelementptr inbounds nuw i8, ptr %0, i64 40
  store i64 0, ptr %10, align 8, !tbaa !15
  %11 = getelementptr inbounds nuw i8, ptr %0, i64 48
  %12 = getelementptr inbounds nuw i8, ptr %0, i64 56
  %13 = load i64, ptr %12, align 8, !tbaa !19
  %14 = tail call noundef nonnull align 8 dereferenceable(32) ptr @_ZNSt7__cxx1112basic_stringIcSt11char_traitsIcESaIcEE10_M_replaceEmmPKcm(ptr noundef nonnull align 8 dereferenceable(32) %11, i64 noundef 0, i64 noundef %13, ptr noundef nonnull @.str.5, i64 noundef 7)
  ret void
}